target datalayout = "e-m:e-p270:32:32-p271:32:32-p272:64:64-i64:64-i128:128-f80:128-n8:16:32:64-S128"
target triple = "x86_64-pc-linux-gnu"

%struct.ItemPointerData = type { %struct.BlockIdData, i16 }
%struct.BlockIdData = type { i16, i16 }
%struct.spgConfigOut = type { i32, i32, i32, i8, i8 }
%struct.SpGistTypeDesc = type { i32, i16, i8, i8, i8 }
%struct.TupleDescData = type { i32, i32, i32, i32, ptr, [0 x %struct.CompactAttribute] }
%struct.CompactAttribute = type { i32, i16, i8, i8, i8, i8, i8, i8, i8 }
%struct.SpGistState = type { ptr, %struct.spgConfigOut, %struct.SpGistTypeDesc, %struct.SpGistTypeDesc, %struct.SpGistTypeDesc, %struct.SpGistTypeDesc, ptr, ptr, i32, i8 }
%struct.SpGistLeafTupleData = type { i32, i16, %struct.ItemPointerData }

; Function Attrs: nounwind uwtable
define dso_local ptr @spgFormLeafTuple(ptr noundef %0, ptr noundef %1, ptr noundef %2, ptr noundef %3) #0 {
  %5 = alloca ptr, align 8
  %6 = alloca ptr, align 8
  %7 = alloca ptr, align 8
  %8 = alloca ptr, align 8
  %9 = alloca ptr, align 8
  %10 = alloca ptr, align 8
  %11 = alloca i64, align 8
  %12 = alloca i64, align 8
  %13 = alloca i64, align 8
  %14 = alloca i8, align 1
  %15 = alloca i32, align 4
  %16 = alloca ptr, align 8
  %17 = alloca i16, align 2
  %18 = alloca i32, align 4
  %19 = alloca i32, align 4
  %20 = alloca ptr, align 8
  store ptr %0, ptr %5, align 8
  store ptr %1, ptr %6, align 8
  store ptr %2, ptr %7, align 8
  store ptr %3, ptr %8, align 8
  call void @llvm.lifetime.start.p0(i64 8, ptr %9) #7
  call void @llvm.lifetime.start.p0(i64 8, ptr %10) #7
  %21 = load ptr, ptr %5, align 8
  %22 = getelementptr inbounds nuw %struct.SpGistState, ptr %21, i32 0, i32 6
  %23 = load ptr, ptr %22, align 8
  store ptr %23, ptr %10, align 8
  call void @llvm.lifetime.start.p0(i64 8, ptr %11) #7
  call void @llvm.lifetime.start.p0(i64 8, ptr %12) #7
  call void @llvm.lifetime.start.p0(i64 8, ptr %13) #7
  call void @llvm.lifetime.start.p0(i64 1, ptr %14) #7
  store i8 0, ptr %14, align 1
  call void @llvm.lifetime.start.p0(i64 4, ptr %15) #7
  %24 = load ptr, ptr %10, align 8
  %25 = getelementptr inbounds nuw %struct.TupleDescData, ptr %24, i32 0, i32 0
  %26 = load i32, ptr %25, align 8
  store i32 %26, ptr %15, align 4
  call void @llvm.lifetime.start.p0(i64 8, ptr %16) #7
  call void @llvm.lifetime.start.p0(i64 2, ptr %17) #7
  store i16 0, ptr %17, align 2
  %27 = load i32, ptr %15, align 4
  %28 = icmp sgt i32 %27, 1
  br i1 %28, label %29, label %49

29:                                               ; preds = %4
  call void @llvm.lifetime.start.p0(i64 4, ptr %18) #7
  store i32 0, ptr %18, align 4
  br label %30

30:                                               ; preds = %44, %29
  %31 = load i32, ptr %18, align 4
  %32 = load i32, ptr %15, align 4
  %33 = icmp slt i32 %31, %32
  br i1 %33, label %35, label %34

34:                                               ; preds = %30
  store i32 2, ptr %19, align 4
  br label %47

35:                                               ; preds = %30
  %36 = load ptr, ptr %8, align 8
  %37 = load i32, ptr %18, align 4
  %38 = sext i32 %37 to i64
  %39 = getelementptr inbounds i8, ptr %36, i64 %38
  %40 = load i8, ptr %39, align 1, !range !4, !noundef !5
  %41 = trunc i8 %40 to i1
  br i1 %41, label %42, label %43

42:                                               ; preds = %35
  store i8 1, ptr %14, align 1
  store i32 2, ptr %19, align 4
  br label %47

43:                                               ; preds = %35
  br label %44

44:                                               ; preds = %43
  %45 = load i32, ptr %18, align 4
  %46 = add i32 %45, 1
  store i32 %46, ptr %18, align 4
  br label %30, !llvm.loop !12

47:                                               ; preds = %42, %34
  call void @llvm.lifetime.end.p0(i64 4, ptr %18) #7
  br label %48

48:                                               ; preds = %47
  br label %49

49:                                               ; preds = %48, %4
  %50 = load ptr, ptr %10, align 8
  %51 = load ptr, ptr %7, align 8
  %52 = load ptr, ptr %8, align 8
  %53 = call i64 @heap_compute_data_size(ptr noundef %50, ptr noundef %51, ptr noundef %52)
  store i64 %53, ptr %13, align 8
  %54 = load i8, ptr %14, align 1, !range !4, !noundef !5
  %55 = trunc i8 %54 to i1
  %56 = select i1 %55, i64 16, i64 16
  store i64 %56, ptr %12, align 8
  %57 = load i64, ptr %12, align 8
  %58 = load i64, ptr %13, align 8
  %59 = add i64 %57, %58
  store i64 %59, ptr %11, align 8
  %60 = load i64, ptr %11, align 8
  %61 = add i64 %60, 7
  %62 = and i64 %61, -8
  store i64 %62, ptr %11, align 8
  %63 = load i64, ptr %11, align 8
  %64 = icmp ult i64 %63, 16
  br i1 %64, label %65, label %66

65:                                               ; preds = %49
  store i64 16, ptr %11, align 8
  br label %66

66:                                               ; preds = %65, %49
  %67 = load i64, ptr %11, align 8
  %68 = call ptr @palloc0(i64 noundef %67)
  store ptr %68, ptr %9, align 8
  %69 = load i64, ptr %11, align 8
  %70 = trunc i64 %69 to i32
  %71 = load ptr, ptr %9, align 8
  %72 = load i32, ptr %71, align 4
  %73 = and i32 %70, 1073741823
  %74 = shl i32 %73, 2
  %75 = and i32 %72, 3
  %76 = or i32 %75, %74
  store i32 %76, ptr %71, align 4
  %77 = load ptr, ptr %9, align 8
  %78 = getelementptr inbounds nuw %struct.SpGistLeafTupleData, ptr %77, i32 0, i32 1
  %79 = load i16, ptr %78, align 4
  %80 = zext i16 %79 to i32
  %81 = and i32 %80, 49152
  %82 = or i32 %81, 0
  %83 = trunc i32 %82 to i16
  %84 = load ptr, ptr %9, align 8
  %85 = getelementptr inbounds nuw %struct.SpGistLeafTupleData, ptr %84, i32 0, i32 1
  store i16 %83, ptr %85, align 4
  %86 = load ptr, ptr %9, align 8
  %87 = getelementptr inbounds nuw %struct.SpGistLeafTupleData, ptr %86, i32 0, i32 2
  %88 = load ptr, ptr %6, align 8
  call void @llvm.memcpy.p0.p0.i64(ptr align 2 %87, ptr align 2 %88, i64 6, i1 false)
  %89 = load ptr, ptr %9, align 8
  %90 = load i64, ptr %12, align 8
  %91 = getelementptr inbounds nuw i8, ptr %89, i64 %90
  store ptr %91, ptr %16, align 8
  %92 = load i8, ptr %14, align 1, !range !4, !noundef !5
  %93 = trunc i8 %92 to i1
  br i1 %93, label %94, label %112

94:                                               ; preds = %66
  call void @llvm.lifetime.start.p0(i64 8, ptr %20) #7
  %95 = load ptr, ptr %9, align 8
  %96 = getelementptr inbounds nuw %struct.SpGistLeafTupleData, ptr %95, i32 0, i32 1
  %97 = load i16, ptr %96, align 4
  %98 = zext i16 %97 to i32
  %99 = and i32 %98, 32767
  %100 = or i32 %99, 32768
  %101 = trunc i32 %100 to i16
  %102 = load ptr, ptr %9, align 8
  %103 = getelementptr inbounds nuw %struct.SpGistLeafTupleData, ptr %102, i32 0, i32 1
  store i16 %101, ptr %103, align 4
  %104 = load ptr, ptr %9, align 8
  %105 = getelementptr inbounds nuw i8, ptr %104, i64 12
  store ptr %105, ptr %20, align 8
  %106 = load ptr, ptr %10, align 8
  %107 = load ptr, ptr %7, align 8
  %108 = load ptr, ptr %8, align 8
  %109 = load ptr, ptr %16, align 8
  %110 = load i64, ptr %13, align 8
  %111 = load ptr, ptr %20, align 8
  call void @heap_fill_tuple(ptr noundef %106, ptr noundef %107, ptr noundef %108, ptr noundef %109, i64 noundef %110, ptr noundef %17, ptr noundef %111)
  call void @llvm.lifetime.end.p0(i64 8, ptr %20) #7
  br label %127

112:                                              ; preds = %66
  %113 = load i32, ptr %15, align 4
  %114 = icmp sgt i32 %113, 1
  br i1 %114, label %120, label %115

115:                                              ; preds = %112
  %116 = load ptr, ptr %8, align 8
  %117 = getelementptr inbounds i8, ptr %116, i64 0
  %118 = load i8, ptr %117, align 1, !range !4, !noundef !5
  %119 = trunc i8 %118 to i1
  br i1 %119, label %126, label %120

120:                                              ; preds = %115, %112
  %121 = load ptr, ptr %10, align 8
  %122 = load ptr, ptr %7, align 8
  %123 = load ptr, ptr %8, align 8
  %124 = load ptr, ptr %16, align 8
  %125 = load i64, ptr %13, align 8
  call void @heap_fill_tuple(ptr noundef %121, ptr noundef %122, ptr noundef %123, ptr noundef %124, i64 noundef %125, ptr noundef %17, ptr noundef null)
  br label %126

126:                                              ; preds = %120, %115
  br label %127

127:                                              ; preds = %126, %94
  %128 = load ptr, ptr %9, align 8
  store i32 1, ptr %19, align 4
  call void @llvm.lifetime.end.p0(i64 2, ptr %17) #7
  call void @llvm.lifetime.end.p0(i64 8, ptr %16) #7
  call void @llvm.lifetime.end.p0(i64 4, ptr %15) #7
  call void @llvm.lifetime.end.p0(i64 1, ptr %14) #7
  call void @llvm.lifetime.end.p0(i64 8, ptr %13) #7
  call void @llvm.lifetime.end.p0(i64 8, ptr %12) #7
  call void @llvm.lifetime.end.p0(i64 8, ptr %11) #7
  call void @llvm.lifetime.end.p0(i64 8, ptr %10) #7
  call void @llvm.lifetime.end.p0(i64 8, ptr %9) #7
  ret ptr %128
}