; Function Attrs: nounwind uwtable
define dso_local noundef ptr @spgFormLeafTuple(ptr noundef readonly captures(none) %0, ptr noundef readonly captures(none) %1, ptr noundef %2, ptr noundef %3) local_unnamed_addr #0 {
  %5 = alloca i16, align 2
  %6 = getelementptr inbounds nuw i8, ptr %0, i64 72
  %7 = load ptr, ptr %6, align 8
  %8 = load i32, ptr %7, align 8
  call void @llvm.lifetime.start.p0(i64 2, ptr nonnull %5) #10
  store i16 0, ptr %5, align 2
  %9 = icmp sgt i32 %8, 1
  br i1 %9, label %.preheader.preheader, label %.loopexit

.preheader.preheader:                             ; preds = %4
  %wide.trip.count = zext nneg i32 %8 to i64
  br label %.preheader

.preheader:                                       ; preds = %.preheader, %.preheader.preheader
  %indvars.iv = phi i64 [ 0, %.preheader.preheader ], [ %indvars.iv.next, %.preheader ]
  %10 = getelementptr inbounds nuw i8, ptr %3, i64 %indvars.iv
  %11 = load i8, ptr %10, align 1, !range !7, !noundef !8
  %12 = trunc nuw i8 %11 to i1
  %indvars.iv.next = add nuw nsw i64 %indvars.iv, 1
  %exitcond.not = icmp eq i64 %indvars.iv.next, %wide.trip.count
  %or.cond = select i1 %12, i1 true, i1 %exitcond.not
  br i1 %or.cond, label %.loopexit, label %.preheader, !llvm.loop !11

.loopexit:                                        ; preds = %.preheader, %4
  %.0 = phi i1 [ false, %4 ], [ %12, %.preheader ]
  %13 = tail call i64 @heap_compute_data_size(ptr noundef nonnull %7, ptr noundef %2, ptr noundef %3) #10
  %14 = add i64 %13, 23
  %15 = tail call i64 @llvm.umax.i64(i64 %14, i64 16)
  %spec.store.select = and i64 %15, -8
  %16 = tail call ptr @palloc0(i64 noundef %spec.store.select) #10
  %17 = trunc i64 %15 to i32
  %18 = load i32, ptr %16, align 4
  %19 = shl i32 %17, 2
  %20 = and i32 %19, -32
  %21 = and i32 %18, 3
  %22 = or disjoint i32 %20, %21
  store i32 %22, ptr %16, align 4
  %23 = getelementptr inbounds nuw i8, ptr %16, i64 4
  %24 = load i16, ptr %23, align 4
  %25 = and i16 %24, -16384
  store i16 %25, ptr %23, align 4
  %26 = getelementptr inbounds nuw i8, ptr %16, i64 6
  tail call void @llvm.memcpy.p0.p0.i64(ptr noundef nonnull align 2 dereferenceable(6) %26, ptr noundef nonnull align 2 dereferenceable(6) %1, i64 6, i1 false)
  %27 = getelementptr inbounds nuw i8, ptr %16, i64 16
  br i1 %.0, label %28, label %31

28:                                               ; preds = %.loopexit
  %29 = or i16 %25, -32768
  store i16 %29, ptr %23, align 4
  %30 = getelementptr inbounds nuw i8, ptr %16, i64 12
  br label %.sink.split

31:                                               ; preds = %.loopexit
  br i1 %9, label %.sink.split, label %32

32:                                               ; preds = %31
  %33 = load i8, ptr %3, align 1, !range !7, !noundef !8
  %34 = trunc nuw i8 %33 to i1
  br i1 %34, label %35, label %.sink.split

.sink.split:                                      ; preds = %31, %32, %28
  %.sink = phi ptr [ %30, %28 ], [ null, %32 ], [ null, %31 ]
  call void @heap_fill_tuple(ptr noundef nonnull %7, ptr noundef %2, ptr noundef %3, ptr noundef nonnull %27, i64 noundef %13, ptr noundef nonnull %5, ptr noundef %.sink) #10
  br label %35

35:                                               ; preds = %.sink.split, %32
  call void @llvm.lifetime.end.p0(i64 2, ptr nonnull %5) #10
  ret ptr %16
}